; Function Attrs: mustprogress nounwind uwtable
define dso_local noundef nonnull align 8 dereferenceable(48) ptr @_ZN5clanglsERN4llvm11raw_ostreamERKNS_20ObjCCategoryImplDeclE(ptr noundef nonnull returned align 8 dereferenceable(48) %0, ptr nocapture noundef nonnull readonly align 8 dereferenceable(100) %1) local_unnamed_addr #0 {
  %3 = getelementptr inbounds nuw i8, ptr %1, i64 40
  %4 = load i64, ptr %3, align 8
  %5 = and i64 %4, 7
  %6 = icmp ne i64 %5, 0
  %7 = and i64 %4, -8
  %.not2.i = icmp eq i64 %7, 0
  %.not.i = or i1 %6, %.not2.i
  br i1 %.not.i, label %_ZN4llvm11raw_ostreamlsENS_9StringRefE.exit, label %_ZNK5clang9NamedDecl7getNameEv.exit

_ZNK5clang9NamedDecl7getNameEv.exit:              ; preds = %2
  %8 = inttoptr i64 %7 to ptr
  %9 = getelementptr inbounds nuw i8, ptr %8, i64 16
  %10 = load ptr, ptr %9, align 8
  %11 = getelementptr inbounds i8, ptr %10, i64 16
  %12 = load i64, ptr %10, align 8
  %13 = and i64 %12, 4294967295
  %14 = getelementptr inbounds nuw i8, ptr %0, i64 24
  %15 = load ptr, ptr %14, align 8
  %16 = getelementptr inbounds nuw i8, ptr %0, i64 32
  %17 = load ptr, ptr %16, align 8
  %18 = ptrtoint ptr %15 to i64
  %19 = ptrtoint ptr %17 to i64
  %20 = sub i64 %18, %19
  %21 = icmp ugt i64 %13, %20
  br i1 %21, label %22, label %24

22:                                               ; preds = %_ZNK5clang9NamedDecl7getNameEv.exit
  %23 = tail call noundef nonnull align 8 dereferenceable(48) ptr @_ZN4llvm11raw_ostream5writeEPKcm(ptr noundef nonnull align 8 dereferenceable(48) %0, ptr noundef nonnull %11, i64 noundef %13) #23
  br label %_ZN4llvm11raw_ostreamlsENS_9StringRefE.exit

24:                                               ; preds = %_ZNK5clang9NamedDecl7getNameEv.exit
  %.not.i3 = icmp eq i64 %13, 0
  br i1 %.not.i3, label %_ZN4llvm11raw_ostreamlsENS_9StringRefE.exit, label %25

25:                                               ; preds = %24
  tail call void @llvm.memcpy.p0.p0.i64(ptr align 1 %17, ptr nonnull align 1 %11, i64 %13, i1 false)
  %26 = load ptr, ptr %16, align 8
  %27 = getelementptr inbounds i8, ptr %26, i64 %13
  store ptr %27, ptr %16, align 8
  br label %_ZN4llvm11raw_ostreamlsENS_9StringRefE.exit

_ZN4llvm11raw_ostreamlsENS_9StringRefE.exit:      ; preds = %2, %22, %24, %25
  ret ptr %0
}